; ModuleID = 'source-C-CXX/59/881.c'
source_filename = "source-C-CXX/59/881.c"
target datalayout = "e-m:e-p270:32:32-p271:32:32-p272:64:64-i64:64-f80:128-n8:16:32:64-S128"
target triple = "x86_64-pc-linux-gnu"

@.str = private unnamed_addr constant [3 x i8] c"%d\00", align 1
@.str.1 = private unnamed_addr constant [7 x i8] c"%d %d\0A\00", align 1
@.str.2 = private unnamed_addr constant [6 x i8] c"empty\00", align 1

; Function Attrs: nofree nounwind sspstrong uwtable
define dso_local i32 @main() local_unnamed_addr #0 {
  %1 = alloca i32, align 4
  %2 = bitcast i32* %1 to i8*
  call void @llvm.lifetime.start.p0i8(i64 4, i8* nonnull %2) #4
  %3 = call i32 (i8*, ...) @__isoc99_scanf(i8* getelementptr inbounds ([3 x i8], [3 x i8]* @.str, i64 0, i64 0), i32* nonnull %1)
  %4 = load i32, i32* %1, align 4, !tbaa !5
  %5 = icmp slt i32 %4, 3
  br i1 %5, label %40, label %6

6:                                                ; preds = %0, %32
  %7 = phi i32 [ %33, %32 ], [ %4, %0 ]
  %8 = phi i32 [ %34, %32 ], [ 0, %0 ]
  %9 = phi i32 [ %35, %32 ], [ 1, %0 ]
  %10 = icmp ult i32 %9, 2
  br i1 %10, label %32, label %11

11:                                               ; preds = %6
  %12 = icmp eq i32 %9, 2
  br i1 %12, label %20, label %15

13:                                               ; preds = %15
  %14 = icmp eq i32 %19, %9
  br i1 %14, label %20, label %15, !llvm.loop !9

15:                                               ; preds = %11, %13
  %16 = phi i32 [ %19, %13 ], [ 2, %11 ]
  %17 = urem i32 %9, %16
  %18 = icmp eq i32 %17, 0
  %19 = add nuw nsw i32 %16, 1
  br i1 %18, label %32, label %13

20:                                               ; preds = %13, %11
  %21 = add nuw nsw i32 %9, 2
  br label %24

22:                                               ; preds = %24
  %23 = icmp eq i32 %28, %21
  br i1 %23, label %29, label %24, !llvm.loop !9

24:                                               ; preds = %22, %20
  %25 = phi i32 [ %28, %22 ], [ 2, %20 ]
  %26 = urem i32 %21, %25
  %27 = icmp eq i32 %26, 0
  %28 = add nuw nsw i32 %25, 1
  br i1 %27, label %32, label %22

29:                                               ; preds = %22
  %30 = call i32 (i8*, ...) @printf(i8* nonnull dereferenceable(1) getelementptr inbounds ([7 x i8], [7 x i8]* @.str.1, i64 0, i64 0), i32 %9, i32 %21)
  %31 = load i32, i32* %1, align 4, !tbaa !5
  br label %32

32:                                               ; preds = %15, %24, %6, %29
  %33 = phi i32 [ %31, %29 ], [ %7, %6 ], [ %7, %24 ], [ %7, %15 ]
  %34 = phi i32 [ 1, %29 ], [ %8, %6 ], [ %8, %24 ], [ %8, %15 ]
  %35 = add nuw nsw i32 %9, 1
  %36 = add nsw i32 %33, -2
  %37 = icmp slt i32 %9, %36
  br i1 %37, label %6, label %38, !llvm.loop !11

38:                                               ; preds = %32
  %39 = icmp eq i32 %34, 0
  br i1 %39, label %40, label %42

40:                                               ; preds = %0, %38
  %41 = call i32 (i8*, ...) @printf(i8* nonnull dereferenceable(1) getelementptr inbounds ([6 x i8], [6 x i8]* @.str.2, i64 0, i64 0))
  br label %42

42:                                               ; preds = %40, %38
  call void @llvm.lifetime.end.p0i8(i64 4, i8* nonnull %2) #4
  ret i32 0
}

; Function Attrs: argmemonly mustprogress nofree nosync nounwind willreturn
declare void @llvm.lifetime.start.p0i8(i64 immarg, i8* nocapture) #1

; Function Attrs: nofree nounwind
declare noundef i32 @__isoc99_scanf(i8* nocapture noundef readonly, ...) local_unnamed_addr #2

; Function Attrs: nofree norecurse nosync nounwind readnone sspstrong uwtable
define dso_local i32 @issushu(i32 %0) local_unnamed_addr #3 {
  %2 = icmp slt i32 %0, 2
  br i1 %2, label %12, label %3

3:                                                ; preds = %1
  %4 = icmp eq i32 %0, 2
  br i1 %4, label %12, label %7

5:                                                ; preds = %7
  %6 = icmp eq i32 %11, %0
  br i1 %6, label %12, label %7, !llvm.loop !9

7:                                                ; preds = %3, %5
  %8 = phi i32 [ %11, %5 ], [ 2, %3 ]
  %9 = srem i32 %0, %8
  %10 = icmp eq i32 %9, 0
  %11 = add nuw nsw i32 %8, 1
  br i1 %10, label %12, label %5

12:                                               ; preds = %7, %5, %3, %1
  %13 = phi i32 [ 0, %1 ], [ 1, %3 ], [ 0, %7 ], [ 1, %5 ]
  ret i32 %13
}

; Function Attrs: nofree nounwind
declare noundef i32 @printf(i8* nocapture noundef readonly, ...) local_unnamed_addr #2

; Function Attrs: argmemonly mustprogress nofree nosync nounwind willreturn
declare void @llvm.lifetime.end.p0i8(i64 immarg, i8* nocapture) #1


!llvm.module.flags = !{!0, !1, !2, !3}
!llvm.ident = !{!4}

!0 = !{i32 1, !"wchar_size", i32 4}
!1 = !{i32 7, !"PIC Level", i32 2}
!2 = !{i32 7, !"PIE Level", i32 2}
!3 = !{i32 7, !"uwtable", i32 1}
!4 = !{!"clang version 13.0.0"}
!5 = !{!6, !6, i64 0}
!6 = !{!"int", !7, i64 0}
!7 = !{!"omnipotent char", !8, i64 0}
!8 = !{!"Simple C/C++ TBAA"}
!9 = distinct !{!9, !10}
!10 = !{!"llvm.loop.mustprogress"}
!11 = distinct !{!11, !10}
